Certificate:
    Data:
        Version: 3 (0x2)
        Serial Number: 3 (0x3)
    Signature Algorithm: sha1WithRSAEncryption
        Issuer: C=GR, ST=Thessaloniki, L=Thessaloniki, O=Aristotle University of Thessaloniki, OU=IT Center, CN=SharpOCSP TestCA/emailAddress=vtsingaras@codersunleashed.com
        Validity
            Not Before: Dec 21 09:54:35 2014 GMT
            Not After : Dec 21 09:54:35 2015 GMT
        Subject: C=GR, ST=Thessaloniki, O=Aristotle University of Thessaloniki, OU=IT Center, CN=SharpOCSP TestCA OCSP Responder/emailAddress=vtsingaras@codersunleashed.com
        Subject Public Key Info:
            Public Key Algorithm: rsaEncryption
                Public-Key: (2048 bit)
                Modulus:
                    00:c8:91:eb:f8:fe:67:41:13:6a:c0:9d:e3:47:3a:
                    b2:f0:1e:b1:86:4c:19:dd:75:ed:7b:d5:a1:bf:92:
                    4d:f0:10:df:56:1c:bc:09:82:b4:08:49:8e:72:8c:
                    ab:be:6c:1d:95:17:cd:f1:fe:f0:6c:c1:b3:ef:8e:
                    3a:89:48:81:1b:f4:a5:ab:18:14:76:24:70:a4:e3:
                    6f:13:37:21:48:33:b4:33:ee:73:93:0c:76:0d:ea:
                    4c:db:30:94:56:98:69:cb:5b:07:fc:5b:56:b9:bc:
                    46:cd:53:cf:4f:15:19:90:3d:c6:55:7a:fc:cc:70:
                    b8:b7:c7:18:fd:5f:af:61:8d:ae:3a:87:b7:6f:11:
                    2a:3f:78:da:c1:c3:f3:38:15:e3:d0:e2:59:82:34:
                    99:c1:97:ec:37:6c:f9:1c:1f:d1:8b:5c:d3:9d:ba:
                    16:4a:cd:6b:08:da:90:b4:ab:fa:6c:ee:c3:f4:ea:
                    8f:23:d9:af:c1:b7:4e:2b:7b:ed:cc:8b:a5:9c:13:
                    aa:34:50:56:7e:55:4b:7d:f3:6d:3b:bd:22:63:49:
                    6b:b7:1b:e3:bc:ea:90:7c:f9:e1:e0:78:17:32:f2:
                    02:51:f4:4f:9a:84:80:58:89:a2:98:1e:5a:f1:b6:
                    03:00:74:ff:70:e3:7e:5a:5c:37:db:e1:f3:6a:b4:
                    a8:01
                Exponent: 65537 (0x10001)
        X509v3 extensions:
            X509v3 Basic Constraints: 
                CA:FALSE
            X509v3 Key Usage: 
                Digital Signature, Non Repudiation, Key Encipherment
            X509v3 Extended Key Usage: 
                OCSP Signing
    Signature Algorithm: sha1WithRSAEncryption
         7c:1f:14:df:84:2c:3a:e1:a0:71:c7:58:8e:50:4e:e8:e1:5c:
         b6:a3:94:48:29:c6:f9:76:03:41:a8:b1:4c:45:f0:a2:69:fe:
         6f:41:30:dc:86:d1:75:6d:a0:ac:5f:64:f0:e9:eb:a8:9e:aa:
         ca:73:0a:21:e1:06:ab:c3:ec:78:21:d2:3d:bb:43:58:39:42:
         e8:8e:de:f9:44:51:f3:e8:e9:48:46:d6:bd:29:c3:bd:bb:19:
         91:15:ca:c7:46:1c:bc:1d:ed:b0:06:2b:79:8e:be:2e:4f:a3:
         fc:a3:7a:1d:6e:f2:48:7c:12:a7:80:e0:83:9b:3a:9e:c7:51:
         62:9e:a3:1b:e0:5c:c9:da:ed:42:bc:4d:e0:67:20:b6:a6:a8:
         33:c1:38:e8:49:03:ec:a2:34:c9:23:c6:d9:aa:1e:76:df:7a:
         2e:60:6b:5f:4c:ad:43:6a:c2:6d:05:ee:1f:af:22:82:55:d7:
         99:a7:6d:7d:3b:9a:47:03:16:8a:5b:95:d2:69:85:ea:cd:96:
         bd:56:79:e8:90:ee:d3:be:fc:a1:6c:a2:b9:74:8b:8e:cb:a6:
         3b:f5:9e:cc:70:78:04:0a:17:98:7b:c4:71:f7:26:68:59:4f:
         ac:f2:88:b9:d8:dd:6a:56:e8:fb:28:eb:c6:ac:c7:b6:ab:f6:
         a5:22:37:fe
-----BEGIN CERTIFICATE-----
MIIENDCCAxygAwIBAgIBAzANBgkqhkiG9w0BAQUFADCByDELMAkGA1UEBhMCR1Ix
FTATBgNVBAgMDFRoZXNzYWxvbmlraTEVMBMGA1UEBwwMVGhlc3NhbG9uaWtpMS0w
KwYDVQQKDCRBcmlzdG90bGUgVW5pdmVyc2l0eSBvZiBUaGVzc2Fsb25pa2kxEjAQ
BgNVBAsMCUlUIENlbnRlcjEZMBcGA1UEAwwQU2hhcnBPQ1NQIFRlc3RDQTEtMCsG
CSqGSIb3DQEJARYednRzaW5nYXJhc0Bjb2RlcnN1bmxlYXNoZWQuY29tMB4XDTE0
MTIyMTA5NTQzNVoXDTE1MTIyMTA5NTQzNVowgcAxCzAJBgNVBAYTAkdSMRUwEwYD
VQQIDAxUaGVzc2Fsb25pa2kxLTArBgNVBAoMJEFyaXN0b3RsZSBVbml2ZXJzaXR5
IG9mIFRoZXNzYWxvbmlraTESMBAGA1UECwwJSVQgQ2VudGVyMSgwJgYDVQQDDB9T
aGFycE9DU1AgVGVzdENBIE9DU1AgUmVzcG9uZGVyMS0wKwYJKoZIhvcNAQkBFh52
dHNpbmdhcmFzQGNvZGVyc3VubGVhc2hlZC5jb20wggEiMA0GCSqGSIb3DQEBAQUA
A4IBDwAwggEKAoIBAQDIkev4/mdBE2rAneNHOrLwHrGGTBndde171aG/kk3wEN9W
HLwJgrQISY5yjKu+bB2VF83x/vBswbPvjjqJSIEb9KWrGBR2JHCk428TNyFIM7Qz
7nOTDHYN6kzbMJRWmGnLWwf8W1a5vEbNU89PFRmQPcZVevzMcLi3xxj9X69hja46
h7dvESo/eNrBw/M4FePQ4lmCNJnBl+w3bPkcH9GLXNOduhZKzWsI2pC0q/ps7sP0
6o8j2a/Bt04re+3Mi6WcE6o0UFZ+VUt98207vSJjSWu3G+O86pB8+eHgeBcy8gJR
9E+ahIBYiaKYHlrxtgMAdP9w435aXDfb4fNqtKgBAgMBAAGjLzAtMAkGA1UdEwQC
MAAwCwYDVR0PBAQDAgXgMBMGA1UdJQQMMAoGCCsGAQUFBwMJMA0GCSqGSIb3DQEB
BQUAA4IBAQB8HxTfhCw64aBxx1iOUE7o4Vy2o5RIKcb5dgNBqLFMRfCiaf5vQTDc
htF1baCsX2Tw6euonqrKcwoh4Qarw+x4IdI9u0NYOULojt75RFHz6OlIRta9KcO9
uxmRFcrHRhy8He2wBit5jr4uT6P8o3odbvJIfBKngOCDmzqex1FinqMb4FzJ2u1C
vE3gZyC2pqgzwTjoSQPsojTJI8bZqh5233ouYGtfTK1DasJtBe4fryKCVdeZp219
O5pHAxaKW5XSaYXqzZa9VnnokO7TvvyhbKK5dIuOy6Y79Z7McHgECheYe8Rx9yZo
WU+s8oi52N1qVuj7KOvGrMe2q/alIjf+
-----END CERTIFICATE-----
