Certificate:
    Data:
        Version: 3 (0x2)
        Serial Number: 5 (0x5)
    Signature Algorithm: sha1WithRSAEncryption
        Issuer: C=GR, ST=Thessaloniki, L=Thessaloniki, O=Aristotle University of Thessaloniki, OU=IT Center, CN=SharpOCSP TestCA/emailAddress=vtsingaras@codersunleashed.com
        Validity
            Not Before: Dec 21 09:57:15 2014 GMT
            Not After : Dec 21 09:57:15 2015 GMT
        Subject: C=GR, ST=Thessaloniki, O=Aristotle University of Thessaloniki, OU=IT Center, CN=Revoked Certificate/emailAddress=vtsingaras@codersunleashed.com
        Subject Public Key Info:
            Public Key Algorithm: rsaEncryption
                Public-Key: (2048 bit)
                Modulus:
                    00:c8:f8:cc:69:b0:c0:7e:22:26:5f:61:82:1a:92:
                    92:65:2c:41:69:12:80:d3:47:fd:88:c8:70:b5:93:
                    59:e6:2b:fa:c3:4a:71:7b:75:5d:db:43:3d:1f:e3:
                    4a:88:eb:14:61:7b:b1:e8:96:0b:99:42:a6:82:9a:
                    5c:6d:13:5b:cc:9e:df:83:d2:c0:7c:04:8e:78:fc:
                    36:a4:67:14:13:76:e4:5e:fb:40:b5:51:1d:17:7a:
                    3d:f1:f4:b5:24:51:4d:a5:8b:23:bc:72:1b:49:e1:
                    06:0d:2e:8b:78:e0:ce:f9:38:f2:6e:87:e9:24:45:
                    51:a7:36:33:92:0f:24:9a:b3:52:61:b6:b0:e9:fa:
                    f5:b1:9c:de:19:d9:08:8f:4e:4c:57:fe:aa:01:c6:
                    c5:3f:5f:9f:92:47:cc:85:94:94:54:ef:cd:c8:55:
                    93:be:65:68:94:90:df:8b:4f:09:00:6c:ab:2b:bf:
                    88:67:3b:a9:5b:ec:02:b6:a8:8a:d5:9a:25:b7:b4:
                    6b:75:4e:17:78:47:6c:19:7b:2e:b5:1a:72:23:e3:
                    3e:f8:69:bc:0a:c0:7f:74:b8:e0:b6:1c:95:85:49:
                    39:8e:e1:3e:1d:4c:a9:45:53:aa:cd:6a:b7:df:cf:
                    0b:e8:5c:8c:9a:ff:33:0d:79:de:81:d3:3a:78:73:
                    b1:f5
                Exponent: 65537 (0x10001)
        X509v3 extensions:
            X509v3 Basic Constraints: 
                CA:FALSE
            Authority Information Access: 
                OCSP - URI:http://localhost:6960

            Netscape Comment: 
                OpenSSL Generated Certificate
            X509v3 Subject Key Identifier: 
                01:D5:34:B3:2F:6F:8A:F4:40:DE:C4:F1:00:40:92:C5:00:88:96:0A
            X509v3 Authority Key Identifier: 
                keyid:1F:9C:F6:2D:6F:D9:38:64:A9:52:89:68:E8:04:34:A6:11:AB:64:12

    Signature Algorithm: sha1WithRSAEncryption
         73:e6:48:5a:81:c6:a0:dc:2a:7b:bd:9b:05:08:9c:55:6d:37:
         b4:f8:8b:77:ea:df:fb:fd:b2:ce:82:63:e2:b0:4c:6a:43:83:
         e4:30:43:2a:64:fa:5b:27:b7:ed:77:6b:9e:f5:3a:f8:87:e2:
         7a:43:7a:0a:3b:33:0a:38:35:0a:c0:2b:1f:1d:d9:09:8b:3d:
         80:27:0a:3b:cb:c3:8c:d8:ac:49:71:fe:ba:c7:ea:fa:16:ea:
         e3:d3:ab:bd:c7:44:2e:89:a2:33:ee:11:de:77:88:dd:42:a6:
         fd:de:19:49:0a:c1:ec:cc:f5:cf:b8:15:39:5a:42:03:76:92:
         50:d0:30:4b:20:d5:4d:c7:23:f9:a9:77:ce:f5:8a:75:d2:54:
         e5:66:4e:86:e8:3c:32:86:1f:be:ac:23:77:29:2d:1a:34:ce:
         77:10:29:dc:35:3c:ec:27:62:46:55:37:ca:e0:81:ec:c9:a0:
         3e:f7:3f:5d:5a:e7:2d:d5:f5:ef:19:7f:6a:65:99:16:67:46:
         e0:a8:8c:e8:f9:0f:6f:71:38:54:1e:9c:3b:5d:5f:85:fd:6f:
         40:5d:89:56:07:f9:15:c1:ff:f6:62:de:7e:4f:f8:f3:cd:2d:
         0d:c3:7c:5f:e0:eb:99:ee:92:46:83:9c:a0:81:f1:6d:f7:dd:
         8a:1f:1b:dd
-----BEGIN CERTIFICATE-----
MIIEqTCCA5GgAwIBAgIBBTANBgkqhkiG9w0BAQUFADCByDELMAkGA1UEBhMCR1Ix
FTATBgNVBAgMDFRoZXNzYWxvbmlraTEVMBMGA1UEBwwMVGhlc3NhbG9uaWtpMS0w
KwYDVQQKDCRBcmlzdG90bGUgVW5pdmVyc2l0eSBvZiBUaGVzc2Fsb25pa2kxEjAQ
BgNVBAsMCUlUIENlbnRlcjEZMBcGA1UEAwwQU2hhcnBPQ1NQIFRlc3RDQTEtMCsG
CSqGSIb3DQEJARYednRzaW5nYXJhc0Bjb2RlcnN1bmxlYXNoZWQuY29tMB4XDTE0
MTIyMTA5NTcxNVoXDTE1MTIyMTA5NTcxNVowgbQxCzAJBgNVBAYTAkdSMRUwEwYD
VQQIDAxUaGVzc2Fsb25pa2kxLTArBgNVBAoMJEFyaXN0b3RsZSBVbml2ZXJzaXR5
IG9mIFRoZXNzYWxvbmlraTESMBAGA1UECwwJSVQgQ2VudGVyMRwwGgYDVQQDDBNS
ZXZva2VkIENlcnRpZmljYXRlMS0wKwYJKoZIhvcNAQkBFh52dHNpbmdhcmFzQGNv
ZGVyc3VubGVhc2hlZC5jb20wggEiMA0GCSqGSIb3DQEBAQUAA4IBDwAwggEKAoIB
AQDI+MxpsMB+IiZfYYIakpJlLEFpEoDTR/2IyHC1k1nmK/rDSnF7dV3bQz0f40qI
6xRhe7HolguZQqaCmlxtE1vMnt+D0sB8BI54/DakZxQTduRe+0C1UR0Xej3x9LUk
UU2liyO8chtJ4QYNLot44M75OPJuh+kkRVGnNjOSDySas1JhtrDp+vWxnN4Z2QiP
TkxX/qoBxsU/X5+SR8yFlJRU783IVZO+ZWiUkN+LTwkAbKsrv4hnO6lb7AK2qIrV
miW3tGt1Thd4R2wZey61GnIj4z74abwKwH90uOC2HJWFSTmO4T4dTKlFU6rNarff
zwvoXIya/zMNed6B0zp4c7H1AgMBAAGjga8wgawwCQYDVR0TBAIwADAxBggrBgEF
BQcBAQQlMCMwIQYIKwYBBQUHMAGGFWh0dHA6Ly9sb2NhbGhvc3Q6Njk2MDAsBglg
hkgBhvhCAQ0EHxYdT3BlblNTTCBHZW5lcmF0ZWQgQ2VydGlmaWNhdGUwHQYDVR0O
BBYEFAHVNLMvb4r0QN7E8QBAksUAiJYKMB8GA1UdIwQYMBaAFB+c9i1v2ThkqVKJ
aOgENKYRq2QSMA0GCSqGSIb3DQEBBQUAA4IBAQBz5khagcag3Cp7vZsFCJxVbTe0
+It36t/7/bLOgmPisExqQ4PkMEMqZPpbJ7ftd2ue9Tr4h+J6Q3oKOzMKODUKwCsf
HdkJiz2AJwo7y8OM2KxJcf66x+r6Furj06u9x0QuiaIz7hHed4jdQqb93hlJCsHs
zPXPuBU5WkIDdpJQ0DBLINVNxyP5qXfO9Yp10lTlZk6G6Dwyhh++rCN3KS0aNM53
ECncNTzsJ2JGVTfK4IHsyaA+9z9dWuct1fXvGX9qZZkWZ0bgqIzo+Q9vcThUHpw7
XV+F/W9AXYlWB/kVwf/2Yt5+T/jzzS0Nw3xf4OuZ7pJGg5yggfFt992KHxvd
-----END CERTIFICATE-----
