Certificate:
    Data:
        Version: 3 (0x2)
        Serial Number: 4 (0x4)
    Signature Algorithm: sha1WithRSAEncryption
        Issuer: C=GR, ST=Thessaloniki, L=Thessaloniki, O=Aristotle University of Thessaloniki, OU=IT Center, CN=SharpOCSP TestCA/emailAddress=vtsingaras@codersunleashed.com
        Validity
            Not Before: Dec 21 09:55:59 2014 GMT
            Not After : Dec 21 09:55:59 2015 GMT
        Subject: C=GR, ST=Thessaloniki, O=Aristotle University of Thessaloniki, OU=IT Center, CN=Valid Certificate/emailAddress=vtsingaras@codersunleashed.com
        Subject Public Key Info:
            Public Key Algorithm: rsaEncryption
                Public-Key: (2048 bit)
                Modulus:
                    00:a1:d8:29:95:70:71:dd:26:24:af:1c:f8:e4:47:
                    39:fe:b7:34:20:ee:c9:9a:d2:91:26:22:b8:bf:d3:
                    99:43:a4:8f:4c:18:b6:a4:54:6e:de:d6:af:74:22:
                    59:70:e3:c0:14:67:91:5d:00:42:2d:6c:0f:8b:15:
                    b6:79:d9:c1:0f:48:e2:89:c4:fc:bf:8b:af:d9:cc:
                    bc:50:94:30:2e:cd:e8:ec:27:50:32:89:e2:a8:cb:
                    ca:92:fe:11:39:1f:bf:80:8e:a6:b9:e0:5f:bf:66:
                    e4:2e:17:10:cf:69:27:3d:35:45:d0:89:03:3b:13:
                    6a:99:db:63:15:c3:41:78:45:85:a4:88:81:b2:98:
                    3d:58:1e:1f:01:30:7d:0b:b2:8c:fd:48:db:96:37:
                    40:a1:fa:60:00:49:43:b9:82:94:a7:e3:cb:11:76:
                    e4:8b:3a:58:f1:cd:41:c3:ab:bc:ed:8c:de:4e:4e:
                    3e:1c:7e:8b:08:54:30:2e:6f:84:bf:af:08:31:b6:
                    2b:cd:97:d0:e5:ba:a5:52:7e:f2:4e:f9:0f:ce:7e:
                    17:c3:57:a0:05:1b:80:cb:a4:14:a7:3e:0c:b8:57:
                    a7:49:ff:dd:95:c5:2b:a8:65:bc:d5:0c:41:80:1c:
                    55:91:80:25:09:5f:97:94:0d:f5:d2:08:ad:c2:aa:
                    ea:1f
                Exponent: 65537 (0x10001)
        X509v3 extensions:
            X509v3 Basic Constraints: 
                CA:FALSE
            Authority Information Access: 
                OCSP - URI:http://localhost:6960

            Netscape Comment: 
                OpenSSL Generated Certificate
            X509v3 Subject Key Identifier: 
                EB:FA:D0:8C:4E:75:D8:23:E0:05:7E:2C:20:9A:5D:4F:26:FD:4A:9F
            X509v3 Authority Key Identifier: 
                keyid:1F:9C:F6:2D:6F:D9:38:64:A9:52:89:68:E8:04:34:A6:11:AB:64:12

    Signature Algorithm: sha1WithRSAEncryption
         71:ee:f3:0a:8e:b9:26:57:32:06:ce:a8:34:a7:cd:1d:4f:08:
         60:73:97:19:2a:c5:b2:5e:c2:35:02:8f:0c:bd:be:b8:ac:d5:
         d0:9d:25:ac:b1:a8:b2:03:2f:07:de:42:06:b6:e3:90:2a:f0:
         01:97:99:89:18:5d:8b:59:1a:37:fd:f9:69:f2:68:3e:98:6f:
         1a:d4:86:e4:e3:8e:6c:1e:71:7d:30:6d:03:a6:1f:f0:4a:84:
         53:cc:1c:da:9e:cf:34:24:7f:e6:1b:93:9c:00:c5:1a:da:fb:
         1e:14:0b:2c:d8:e1:f6:ad:9a:7e:76:75:1b:d4:4f:c4:e1:a8:
         62:f9:2a:b7:b9:49:42:65:99:df:e8:95:b0:ca:bc:d8:ae:70:
         2a:ad:d3:6c:70:80:9b:fa:76:34:62:77:02:ee:8d:94:d3:bf:
         3e:d4:15:92:0f:f0:04:53:3a:ae:07:59:2c:95:52:a6:0f:de:
         a4:93:4b:45:12:cd:6c:38:6a:27:43:65:af:32:62:ff:dd:d9:
         b2:be:11:ce:fe:3c:c1:24:e6:91:7b:a7:fb:d3:8e:91:7e:21:
         ca:5f:d4:03:25:e7:3b:8d:2d:a1:0f:de:d9:3e:20:be:a8:8a:
         18:40:e7:45:a8:b0:f1:3b:9b:71:c5:58:b0:dd:00:63:cd:f6:
         62:3a:2c:a4
-----BEGIN CERTIFICATE-----
MIIEpzCCA4+gAwIBAgIBBDANBgkqhkiG9w0BAQUFADCByDELMAkGA1UEBhMCR1Ix
FTATBgNVBAgMDFRoZXNzYWxvbmlraTEVMBMGA1UEBwwMVGhlc3NhbG9uaWtpMS0w
KwYDVQQKDCRBcmlzdG90bGUgVW5pdmVyc2l0eSBvZiBUaGVzc2Fsb25pa2kxEjAQ
BgNVBAsMCUlUIENlbnRlcjEZMBcGA1UEAwwQU2hhcnBPQ1NQIFRlc3RDQTEtMCsG
CSqGSIb3DQEJARYednRzaW5nYXJhc0Bjb2RlcnN1bmxlYXNoZWQuY29tMB4XDTE0
MTIyMTA5NTU1OVoXDTE1MTIyMTA5NTU1OVowgbIxCzAJBgNVBAYTAkdSMRUwEwYD
VQQIDAxUaGVzc2Fsb25pa2kxLTArBgNVBAoMJEFyaXN0b3RsZSBVbml2ZXJzaXR5
IG9mIFRoZXNzYWxvbmlraTESMBAGA1UECwwJSVQgQ2VudGVyMRowGAYDVQQDDBFW
YWxpZCBDZXJ0aWZpY2F0ZTEtMCsGCSqGSIb3DQEJARYednRzaW5nYXJhc0Bjb2Rl
cnN1bmxlYXNoZWQuY29tMIIBIjANBgkqhkiG9w0BAQEFAAOCAQ8AMIIBCgKCAQEA
odgplXBx3SYkrxz45Ec5/rc0IO7JmtKRJiK4v9OZQ6SPTBi2pFRu3tavdCJZcOPA
FGeRXQBCLWwPixW2ednBD0jiicT8v4uv2cy8UJQwLs3o7CdQMoniqMvKkv4ROR+/
gI6mueBfv2bkLhcQz2knPTVF0IkDOxNqmdtjFcNBeEWFpIiBspg9WB4fATB9C7KM
/UjbljdAofpgAElDuYKUp+PLEXbkizpY8c1Bw6u87YzeTk4+HH6LCFQwLm+Ev68I
MbYrzZfQ5bqlUn7yTvkPzn4Xw1egBRuAy6QUpz4MuFenSf/dlcUrqGW81QxBgBxV
kYAlCV+XlA310gitwqrqHwIDAQABo4GvMIGsMAkGA1UdEwQCMAAwMQYIKwYBBQUH
AQEEJTAjMCEGCCsGAQUFBzABhhVodHRwOi8vbG9jYWxob3N0OjY5NjAwLAYJYIZI
AYb4QgENBB8WHU9wZW5TU0wgR2VuZXJhdGVkIENlcnRpZmljYXRlMB0GA1UdDgQW
BBTr+tCMTnXYI+AFfiwgml1PJv1KnzAfBgNVHSMEGDAWgBQfnPYtb9k4ZKlSiWjo
BDSmEatkEjANBgkqhkiG9w0BAQUFAAOCAQEAce7zCo65JlcyBs6oNKfNHU8IYHOX
GSrFsl7CNQKPDL2+uKzV0J0lrLGosgMvB95CBrbjkCrwAZeZiRhdi1kaN/35afJo
PphvGtSG5OOObB5xfTBtA6Yf8EqEU8wc2p7PNCR/5huTnADFGtr7HhQLLNjh9q2a
fnZ1G9RPxOGoYvkqt7lJQmWZ3+iVsMq82K5wKq3TbHCAm/p2NGJ3Au6NlNO/PtQV
kg/wBFM6rgdZLJVSpg/epJNLRRLNbDhqJ0NlrzJi/93Zsr4Rzv48wSTmkXun+9OO
kX4hyl/UAyXnO40toQ/e2T4gvqiKGEDnRaiw8TubccVYsN0AY832YjospA==
-----END CERTIFICATE-----
